; Function Attrs: mustprogress nofree norecurse nosync nounwind sspstrong willreturn memory(argmem: readwrite) uwtable
define internal noundef i32 @write_vstart(ptr noundef captures(none) initializes((4632, 4640)) %env, i32 %csrno, i64 noundef %val) #4 {
entry:
  %vlen = getelementptr i8, ptr %env, i64 5288
  %0 = load i16, ptr %vlen, align 8
  %1 = tail call range(i16 0, 17) i16 @llvm.cttz.i16(i16 %0, i1 true)
  %2 = zext nneg i16 %1 to i64
  %shl = shl nsw i64 -1, %2
  %not = xor i64 %shl, -1
  %and = and i64 %val, %not
  %vstart = getelementptr inbounds nuw i8, ptr %env, i64 4632
  store i64 %and, ptr %vstart, align 8
  ret i32 -1
}